target datalayout = "e-m:e-p270:32:32-p271:32:32-p272:64:64-i64:64-i128:128-f80:128-n8:16:32:64-S128"
target triple = "x86_64-pc-linux-gnu"

%struct.rtree_ctx_s = type { [16 x %struct.rtree_ctx_cache_elm_s], [8 x %struct.rtree_ctx_cache_elm_s] }
%struct.rtree_ctx_cache_elm_s = type { i64, ptr }

; Function Attrs: nounwind uwtable
define void @duckdb_je_rtree_ctx_data_init(ptr noundef %0) #0 {
  %2 = alloca ptr, align 8
  %3 = alloca i32, align 4
  %4 = alloca ptr, align 8
  %5 = alloca i32, align 4
  %6 = alloca ptr, align 8
  store ptr %0, ptr %2, align 8, !tbaa !17
  call void @llvm.lifetime.start.p0(i64 4, ptr %3) #8
  store i32 0, ptr %3, align 4, !tbaa !30
  br label %7

7:                                                ; preds = %21, %1
  %8 = load i32, ptr %3, align 4, !tbaa !30
  %9 = icmp ult i32 %8, 16
  br i1 %9, label %11, label %10

10:                                               ; preds = %7
  call void @llvm.lifetime.end.p0(i64 4, ptr %3) #8
  br label %24

11:                                               ; preds = %7
  call void @llvm.lifetime.start.p0(i64 8, ptr %4) #8
  %12 = load ptr, ptr %2, align 8, !tbaa !17
  %13 = getelementptr inbounds nuw %struct.rtree_ctx_s, ptr %12, i32 0, i32 0
  %14 = load i32, ptr %3, align 4, !tbaa !30
  %15 = zext i32 %14 to i64
  %16 = getelementptr inbounds nuw [16 x %struct.rtree_ctx_cache_elm_s], ptr %13, i64 0, i64 %15
  store ptr %16, ptr %4, align 8, !tbaa !35
  %17 = load ptr, ptr %4, align 8, !tbaa !35
  %18 = getelementptr inbounds nuw %struct.rtree_ctx_cache_elm_s, ptr %17, i32 0, i32 0
  store i64 1, ptr %18, align 8, !tbaa !27
  %19 = load ptr, ptr %4, align 8, !tbaa !35
  %20 = getelementptr inbounds nuw %struct.rtree_ctx_cache_elm_s, ptr %19, i32 0, i32 1
  store ptr null, ptr %20, align 8, !tbaa !29
  call void @llvm.lifetime.end.p0(i64 8, ptr %4) #8
  br label %21

21:                                               ; preds = %11
  %22 = load i32, ptr %3, align 4, !tbaa !30
  %23 = add i32 %22, 1
  store i32 %23, ptr %3, align 4, !tbaa !30
  br label %7

24:                                               ; preds = %10
  call void @llvm.lifetime.start.p0(i64 4, ptr %5) #8
  store i32 0, ptr %5, align 4, !tbaa !30
  br label %25

25:                                               ; preds = %39, %24
  %26 = load i32, ptr %5, align 4, !tbaa !30
  %27 = icmp ult i32 %26, 8
  br i1 %27, label %29, label %28

28:                                               ; preds = %25
  call void @llvm.lifetime.end.p0(i64 4, ptr %5) #8
  br label %42

29:                                               ; preds = %25
  call void @llvm.lifetime.start.p0(i64 8, ptr %6) #8
  %30 = load ptr, ptr %2, align 8, !tbaa !17
  %31 = getelementptr inbounds nuw %struct.rtree_ctx_s, ptr %30, i32 0, i32 1
  %32 = load i32, ptr %5, align 4, !tbaa !30
  %33 = zext i32 %32 to i64
  %34 = getelementptr inbounds nuw [8 x %struct.rtree_ctx_cache_elm_s], ptr %31, i64 0, i64 %33
  store ptr %34, ptr %6, align 8, !tbaa !35
  %35 = load ptr, ptr %6, align 8, !tbaa !35
  %36 = getelementptr inbounds nuw %struct.rtree_ctx_cache_elm_s, ptr %35, i32 0, i32 0
  store i64 1, ptr %36, align 8, !tbaa !27
  %37 = load ptr, ptr %6, align 8, !tbaa !35
  %38 = getelementptr inbounds nuw %struct.rtree_ctx_cache_elm_s, ptr %37, i32 0, i32 1
  store ptr null, ptr %38, align 8, !tbaa !29
  call void @llvm.lifetime.end.p0(i64 8, ptr %6) #8
  br label %39

39:                                               ; preds = %29
  %40 = load i32, ptr %5, align 4, !tbaa !30
  %41 = add i32 %40, 1
  store i32 %41, ptr %5, align 4, !tbaa !30
  br label %25

42:                                               ; preds = %28
  ret void
}