; Function Attrs: nofree norecurse nosync nounwind memory(argmem: write) uwtable
define void @duckdb_je_rtree_ctx_data_init(ptr noundef writeonly captures(none) %0) local_unnamed_addr #3 {
  br label %3

.preheader:                                       ; preds = %3
  %2 = getelementptr inbounds nuw i8, ptr %0, i64 256
  br label %7

3:                                                ; preds = %1, %3
  %indvars.iv = phi i64 [ 0, %1 ], [ %indvars.iv.next, %3 ]
  %4 = getelementptr inbounds nuw [16 x %struct.rtree_ctx_cache_elm_s], ptr %0, i64 0, i64 %indvars.iv
  store i64 1, ptr %4, align 8, !tbaa !11
  %5 = getelementptr inbounds nuw i8, ptr %4, i64 8
  store ptr null, ptr %5, align 8, !tbaa !15
  %indvars.iv.next = add nuw nsw i64 %indvars.iv, 1
  %exitcond.not = icmp eq i64 %indvars.iv.next, 16
  br i1 %exitcond.not, label %.preheader, label %3

6:                                                ; preds = %7
  ret void

7:                                                ; preds = %.preheader, %7
  %indvars.iv15 = phi i64 [ 0, %.preheader ], [ %indvars.iv.next16, %7 ]
  %8 = getelementptr inbounds nuw [8 x %struct.rtree_ctx_cache_elm_s], ptr %2, i64 0, i64 %indvars.iv15
  store i64 1, ptr %8, align 8, !tbaa !11
  %9 = getelementptr inbounds nuw i8, ptr %8, i64 8
  store ptr null, ptr %9, align 8, !tbaa !15
  %indvars.iv.next16 = add nuw nsw i64 %indvars.iv15, 1
  %exitcond18.not = icmp eq i64 %indvars.iv.next16, 8
  br i1 %exitcond18.not, label %6, label %7
}